target datalayout = "e-m:e-p270:32:32-p271:32:32-p272:64:64-i64:64-i128:128-f80:128-n8:16:32:64-S128"
target triple = "x86_64-pc-linux-gnu"

%"class.std::__cxx11::basic_string" = type { %"struct.std::__cxx11::basic_string<char>::_Alloc_hider", i64, %union.anon }
%"struct.std::__cxx11::basic_string<char>::_Alloc_hider" = type { ptr }
%union.anon = type { i64, [8 x i8] }
%"class.rocksdb::Slice" = type { ptr, i64 }
%"class.rocksdb::MergeHelper" = type { ptr, ptr, ptr, ptr, ptr, ptr, ptr, i8, i8, i64, ptr, i32, %"class.std::deque", %"class.rocksdb::MergeContext", %"class.rocksdb::StopWatchNano", i64, ptr, i8, %"class.std::__cxx11::basic_string", %"class.rocksdb::InternalKey" }
%"class.std::deque" = type { %"class.std::_Deque_base" }
%"class.std::_Deque_base" = type { %"struct.std::_Deque_base<std::__cxx11::basic_string<char>, std::allocator<std::__cxx11::basic_string<char>>>::_Deque_impl" }
%"struct.std::_Deque_base<std::__cxx11::basic_string<char>, std::allocator<std::__cxx11::basic_string<char>>>::_Deque_impl" = type { %"struct.std::_Deque_base<std::__cxx11::basic_string<char>, std::allocator<std::__cxx11::basic_string<char>>>::_Deque_impl_data" }
%"struct.std::_Deque_base<std::__cxx11::basic_string<char>, std::allocator<std::__cxx11::basic_string<char>>>::_Deque_impl_data" = type { ptr, i64, %"struct.std::_Deque_iterator", %"struct.std::_Deque_iterator" }
%"struct.std::_Deque_iterator" = type { ptr, ptr, ptr, ptr }
%"class.rocksdb::MergeContext" = type <{ ptr, %"class.std::unique_ptr", %"class.std::unique_ptr.8", i8, [7 x i8] }>
%"class.std::unique_ptr" = type { %"struct.std::__uniq_ptr_data" }
%"struct.std::__uniq_ptr_data" = type { %"class.std::__uniq_ptr_impl" }
%"class.std::__uniq_ptr_impl" = type { %"class.std::tuple" }
%"class.std::tuple" = type { %"struct.std::_Tuple_impl" }
%"struct.std::_Tuple_impl" = type { %"struct.std::_Head_base.7" }
%"struct.std::_Head_base.7" = type { ptr }
%"class.std::unique_ptr.8" = type { %"struct.std::__uniq_ptr_data.9" }
%"struct.std::__uniq_ptr_data.9" = type { %"class.std::__uniq_ptr_impl.10" }
%"class.std::__uniq_ptr_impl.10" = type { %"class.std::tuple.11" }
%"class.std::tuple.11" = type { %"struct.std::_Tuple_impl.12" }
%"struct.std::_Tuple_impl.12" = type { %"struct.std::_Head_base.15" }
%"struct.std::_Head_base.15" = type { ptr }
%"class.rocksdb::StopWatchNano" = type { ptr, i64 }
%"class.rocksdb::InternalKey" = type { %"class.std::__cxx11::basic_string" }

@_ZN7rocksdb17kValueTypeForSeekE = external constant i8, align 1

; Function Attrs: mustprogress nounwind uwtable
define linkonce_odr void @_ZNSt11char_traitsIcE6assignERcRKc(ptr noundef nonnull align 1 dereferenceable(1) %0, ptr noundef nonnull align 1 dereferenceable(1) %1) #1 comdat align 2 {
  %3 = alloca ptr, align 8
  %4 = alloca ptr, align 8
  store ptr %0, ptr %3, align 8, !tbaa !17
  store ptr %1, ptr %4, align 8, !tbaa !17
  %5 = load ptr, ptr %4, align 8, !tbaa !17
  %6 = load i8, ptr %5, align 1, !tbaa !199
  %7 = load ptr, ptr %3, align 8, !tbaa !17
  store i8 %6, ptr %7, align 1, !tbaa !199
  ret void
}

; Function Attrs: mustprogress nounwind uwtable
define available_externally noundef ptr @_ZNKSt7__cxx1112basic_stringIcSt11char_traitsIcESaIcEE7_M_dataEv(ptr noundef nonnull align 8 dereferenceable(32) %0) #1 align 2 {
  %2 = alloca ptr, align 8
  store ptr %0, ptr %2, align 8, !tbaa !30
  %3 = load ptr, ptr %2, align 8
  %4 = getelementptr inbounds nuw %"class.std::__cxx11::basic_string", ptr %3, i32 0, i32 0
  %5 = getelementptr inbounds nuw %"struct.std::__cxx11::basic_string<char>::_Alloc_hider", ptr %4, i32 0, i32 0
  %6 = load ptr, ptr %5, align 8, !tbaa !394
  ret ptr %6
}

; Function Attrs: mustprogress nounwind uwtable
define available_externally void @_ZNSt7__cxx1112basic_stringIcSt11char_traitsIcESaIcEE9_M_lengthEm(ptr noundef nonnull align 8 dereferenceable(32) %0, i64 noundef %1) #1 align 2 {
  %3 = alloca ptr, align 8
  %4 = alloca i64, align 8
  store ptr %0, ptr %3, align 8, !tbaa !30
  store i64 %1, ptr %4, align 8, !tbaa !13
  %5 = load ptr, ptr %3, align 8
  %6 = load i64, ptr %4, align 8, !tbaa !13
  %7 = getelementptr inbounds nuw %"class.std::__cxx11::basic_string", ptr %5, i32 0, i32 1
  store i64 %6, ptr %7, align 8, !tbaa !390
  ret void
}

; Function Attrs: mustprogress uwtable
define linkonce_odr noundef i64 @_ZN7rocksdb13StopWatchNano12ElapsedNanosEb(ptr noundef nonnull align 8 dereferenceable(16) %0, i1 noundef zeroext %1) #5 comdat align 2 {
  %3 = alloca ptr, align 8
  %4 = alloca i8, align 1
  %5 = alloca i64, align 8
  %6 = alloca i64, align 8
  store ptr %0, ptr %3, align 8, !tbaa !130
  %7 = zext i1 %1 to i8
  store i8 %7, ptr %4, align 1, !tbaa !64
  %8 = load ptr, ptr %3, align 8
  call void @llvm.lifetime.start.p0(i64 8, ptr %5) #2
  %9 = getelementptr inbounds nuw %"class.rocksdb::StopWatchNano", ptr %8, i32 0, i32 0
  %10 = load ptr, ptr %9, align 8, !tbaa !133
  %11 = load ptr, ptr %10, align 8, !tbaa !116
  %12 = getelementptr inbounds ptr, ptr %11, i64 20
  %13 = load ptr, ptr %12, align 8
  %14 = call noundef i64 %13(ptr noundef nonnull align 8 dereferenceable(32) %10)
  store i64 %14, ptr %5, align 8, !tbaa !13
  call void @llvm.lifetime.start.p0(i64 8, ptr %6) #2
  %15 = load i64, ptr %5, align 8, !tbaa !13
  %16 = getelementptr inbounds nuw %"class.rocksdb::StopWatchNano", ptr %8, i32 0, i32 1
  %17 = load i64, ptr %16, align 8, !tbaa !134
  %18 = sub i64 %15, %17
  store i64 %18, ptr %6, align 8, !tbaa !13
  %19 = load i8, ptr %4, align 1, !tbaa !64, !range !106, !noundef !107
  %20 = trunc i8 %19 to i1
  br i1 %20, label %21, label %24

21:                                               ; preds = %2
  %22 = load i64, ptr %5, align 8, !tbaa !13
  %23 = getelementptr inbounds nuw %"class.rocksdb::StopWatchNano", ptr %8, i32 0, i32 1
  store i64 %22, ptr %23, align 8, !tbaa !134
  br label %24

24:                                               ; preds = %21, %2
  %25 = load i64, ptr %6, align 8, !tbaa !13
  call void @llvm.lifetime.end.p0(i64 8, ptr %6) #2
  call void @llvm.lifetime.end.p0(i64 8, ptr %5) #2
  ret i64 %25
}

; Function Attrs: mustprogress nounwind uwtable
define available_externally noundef i64 @_ZNKSt7__cxx1112basic_stringIcSt11char_traitsIcESaIcEE4sizeEv(ptr noundef nonnull align 8 dereferenceable(32) %0) #1 align 2 {
  %2 = alloca ptr, align 8
  store ptr %0, ptr %2, align 8, !tbaa !30
  %3 = load ptr, ptr %2, align 8
  %4 = getelementptr inbounds nuw %"class.std::__cxx11::basic_string", ptr %3, i32 0, i32 1
  %5 = load i64, ptr %4, align 8, !tbaa !390
  ret i64 %5
}

; Function Attrs: mustprogress nounwind uwtable
define available_externally noundef ptr @_ZNKSt7__cxx1112basic_stringIcSt11char_traitsIcESaIcEE4dataEv(ptr noundef nonnull align 8 dereferenceable(32) %0) #1 align 2 {
  %2 = alloca ptr, align 8
  store ptr %0, ptr %2, align 8, !tbaa !30
  %3 = load ptr, ptr %2, align 8
  %4 = call noundef ptr @_ZNKSt7__cxx1112basic_stringIcSt11char_traitsIcESaIcEE7_M_dataEv(ptr noundef nonnull align 8 dereferenceable(32) %3)
  ret ptr %4
}

; Function Attrs: mustprogress nounwind uwtable
define available_externally void @_ZNSt7__cxx1112basic_stringIcSt11char_traitsIcESaIcEE13_M_set_lengthEm(ptr noundef nonnull align 8 dereferenceable(32) %0, i64 noundef %1) #1 align 2 {
  %3 = alloca ptr, align 8
  %4 = alloca i64, align 8
  %5 = alloca i8, align 1
  store ptr %0, ptr %3, align 8, !tbaa !30
  store i64 %1, ptr %4, align 8, !tbaa !13
  %6 = load ptr, ptr %3, align 8
  %7 = load i64, ptr %4, align 8, !tbaa !13
  call void @_ZNSt7__cxx1112basic_stringIcSt11char_traitsIcESaIcEE9_M_lengthEm(ptr noundef nonnull align 8 dereferenceable(32) %6, i64 noundef %7)
  %8 = call noundef ptr @_ZNKSt7__cxx1112basic_stringIcSt11char_traitsIcESaIcEE7_M_dataEv(ptr noundef nonnull align 8 dereferenceable(32) %6)
  %9 = load i64, ptr %4, align 8, !tbaa !13
  %10 = getelementptr inbounds nuw i8, ptr %8, i64 %9
  call void @llvm.lifetime.start.p0(i64 1, ptr %5) #2
  store i8 0, ptr %5, align 1, !tbaa !199
  call void @_ZNSt11char_traitsIcE6assignERcRKc(ptr noundef nonnull align 1 dereferenceable(1) %10, ptr noundef nonnull align 1 dereferenceable(1) %5) #2
  call void @llvm.lifetime.end.p0(i64 1, ptr %5) #2
  ret void
}

; Function Attrs: mustprogress uwtable
define linkonce_odr noundef i64 @_ZN7rocksdb13StopWatchNano16ElapsedNanosSafeEb(ptr noundef nonnull align 8 dereferenceable(16) %0, i1 noundef zeroext %1) #5 comdat align 2 {
  %3 = alloca ptr, align 8
  %4 = alloca i8, align 1
  store ptr %0, ptr %3, align 8, !tbaa !130
  %5 = zext i1 %1 to i8
  store i8 %5, ptr %4, align 1, !tbaa !64
  %6 = load ptr, ptr %3, align 8
  %7 = getelementptr inbounds nuw %"class.rocksdb::StopWatchNano", ptr %6, i32 0, i32 0
  %8 = load ptr, ptr %7, align 8, !tbaa !133
  %9 = icmp ne ptr %8, null
  br i1 %9, label %10, label %14

10:                                               ; preds = %2
  %11 = load i8, ptr %4, align 1, !tbaa !64, !range !106, !noundef !107
  %12 = trunc i8 %11 to i1
  %13 = call noundef i64 @_ZN7rocksdb13StopWatchNano12ElapsedNanosEb(ptr noundef nonnull align 8 dereferenceable(16) %6, i1 noundef zeroext %12)
  br label %15

14:                                               ; preds = %2
  br label %15

15:                                               ; preds = %14, %10
  %16 = phi i64 [ %13, %10 ], [ 0, %14 ]
  ret i64 %16
}

; Function Attrs: mustprogress uwtable
define linkonce_odr void @_ZN7rocksdb11InternalKey18ConvertFromUserKeyEmNS_9ValueTypeE(ptr noundef nonnull align 8 dereferenceable(32) %0, i64 noundef %1, i8 noundef zeroext %2) #5 comdat align 2 {
  %4 = alloca ptr, align 8
  %5 = alloca i64, align 8
  %6 = alloca i8, align 1
  store ptr %0, ptr %4, align 8, !tbaa !135
  store i64 %1, ptr %5, align 8, !tbaa !13
  store i8 %2, ptr %6, align 1, !tbaa !15
  %7 = load ptr, ptr %4, align 8
  %8 = getelementptr inbounds nuw %"class.rocksdb::InternalKey", ptr %7, i32 0, i32 0
  %9 = load i64, ptr %5, align 8, !tbaa !13
  %10 = load i8, ptr %6, align 1, !tbaa !15
  call void @_ZN7rocksdb23AppendInternalKeyFooterEPNSt7__cxx1112basic_stringIcSt11char_traitsIcESaIcEEEmNS_9ValueTypeE(ptr noundef %8, i64 noundef %9, i8 noundef zeroext %10)
  ret void
}

; Function Attrs: mustprogress nounwind uwtable
define linkonce_odr void @_ZN7rocksdb5SliceC2ERKNSt7__cxx1112basic_stringIcSt11char_traitsIcESaIcEEE(ptr noundef nonnull align 8 dereferenceable(16) %0, ptr noundef nonnull align 8 dereferenceable(32) %1) unnamed_addr #1 comdat align 2 {
  %3 = alloca ptr, align 8
  %4 = alloca ptr, align 8
  store ptr %0, ptr %3, align 8, !tbaa !19
  store ptr %1, ptr %4, align 8, !tbaa !30
  %5 = load ptr, ptr %3, align 8
  %6 = getelementptr inbounds nuw %"class.rocksdb::Slice", ptr %5, i32 0, i32 0
  %7 = load ptr, ptr %4, align 8, !tbaa !30
  %8 = call noundef ptr @_ZNKSt7__cxx1112basic_stringIcSt11char_traitsIcESaIcEE4dataEv(ptr noundef nonnull align 8 dereferenceable(32) %7) #2
  store ptr %8, ptr %6, align 8, !tbaa !20
  %9 = getelementptr inbounds nuw %"class.rocksdb::Slice", ptr %5, i32 0, i32 1
  %10 = load ptr, ptr %4, align 8, !tbaa !30
  %11 = call noundef i64 @_ZNKSt7__cxx1112basic_stringIcSt11char_traitsIcESaIcEE4sizeEv(ptr noundef nonnull align 8 dereferenceable(32) %10) #2
  store i64 %11, ptr %9, align 8, !tbaa !22
  ret void
}

; Function Attrs: mustprogress nounwind uwtable
define linkonce_odr noundef ptr @_ZN7rocksdb11InternalKey3repB5cxx11Ev(ptr noundef nonnull align 8 dereferenceable(32) %0) #1 comdat align 2 {
  %2 = alloca ptr, align 8
  store ptr %0, ptr %2, align 8, !tbaa !135
  %3 = load ptr, ptr %2, align 8
  %4 = getelementptr inbounds nuw %"class.rocksdb::InternalKey", ptr %3, i32 0, i32 0
  ret ptr %4
}

; Function Attrs: mustprogress nounwind uwtable
define linkonce_odr void @_ZN7rocksdb11InternalKey5ClearEv(ptr noundef nonnull align 8 dereferenceable(32) %0) #1 comdat align 2 {
  %2 = alloca ptr, align 8
  store ptr %0, ptr %2, align 8, !tbaa !135
  %3 = load ptr, ptr %2, align 8
  %4 = getelementptr inbounds nuw %"class.rocksdb::InternalKey", ptr %3, i32 0, i32 0
  call void @_ZNSt7__cxx1112basic_stringIcSt11char_traitsIcESaIcEE5clearEv(ptr noundef nonnull align 8 dereferenceable(32) %4) #2
  ret void
}

; Function Attrs: mustprogress nounwind uwtable
define available_externally void @_ZNSt7__cxx1112basic_stringIcSt11char_traitsIcESaIcEE5clearEv(ptr noundef nonnull align 8 dereferenceable(32) %0) #1 align 2 {
  %2 = alloca ptr, align 8
  store ptr %0, ptr %2, align 8, !tbaa !30
  %3 = load ptr, ptr %2, align 8
  call void @_ZNSt7__cxx1112basic_stringIcSt11char_traitsIcESaIcEE13_M_set_lengthEm(ptr noundef nonnull align 8 dereferenceable(32) %3, i64 noundef 0)
  ret void
}

; Function Attrs: mustprogress uwtable
define linkonce_odr void @_ZN7rocksdb13StopWatchNano5StartEv(ptr noundef nonnull align 8 dereferenceable(16) %0) #5 comdat align 2 {
  %2 = alloca ptr, align 8
  store ptr %0, ptr %2, align 8, !tbaa !130
  %3 = load ptr, ptr %2, align 8
  %4 = getelementptr inbounds nuw %"class.rocksdb::StopWatchNano", ptr %3, i32 0, i32 0
  %5 = load ptr, ptr %4, align 8, !tbaa !133
  %6 = load ptr, ptr %5, align 8, !tbaa !116
  %7 = getelementptr inbounds ptr, ptr %6, i64 20
  %8 = load ptr, ptr %7, align 8
  %9 = call noundef i64 %8(ptr noundef nonnull align 8 dereferenceable(32) %5)
  %10 = getelementptr inbounds nuw %"class.rocksdb::StopWatchNano", ptr %3, i32 0, i32 1
  store i64 %9, ptr %10, align 8, !tbaa !134
  ret void
}

; Function Attrs: mustprogress uwtable
define noundef i32 @_ZN7rocksdb11MergeHelper11FilterMergeERKNS_5SliceES3_(ptr noundef nonnull align 8 dereferenceable(304) %0, ptr noundef nonnull align 8 dereferenceable(16) %1, ptr noundef nonnull align 8 dereferenceable(16) %2) #5 align 2 {
  %4 = alloca i32, align 4
  %5 = alloca ptr, align 8
  %6 = alloca ptr, align 8
  %7 = alloca ptr, align 8
  %8 = alloca i32, align 4
  %9 = alloca %"class.rocksdb::Slice", align 8
  store ptr %0, ptr %5, align 8, !tbaa !52
  store ptr %1, ptr %6, align 8, !tbaa !19
  store ptr %2, ptr %7, align 8, !tbaa !19
  %10 = load ptr, ptr %5, align 8
  %11 = getelementptr inbounds nuw %"class.rocksdb::MergeHelper", ptr %10, i32 0, i32 4
  %12 = load ptr, ptr %11, align 8, !tbaa !103
  %13 = icmp eq ptr %12, null
  br i1 %13, label %14, label %15

14:                                               ; preds = %3
  store i32 0, ptr %4, align 4
  br label %80

15:                                               ; preds = %3
  %16 = getelementptr inbounds nuw %"class.rocksdb::MergeHelper", ptr %10, i32 0, i32 16
  %17 = load ptr, ptr %16, align 8, !tbaa !114
  %18 = icmp ne ptr %17, null
  br i1 %18, label %19, label %27

19:                                               ; preds = %15
  %20 = getelementptr inbounds nuw %"class.rocksdb::MergeHelper", ptr %10, i32 0, i32 0
  %21 = load ptr, ptr %20, align 8, !tbaa !73
  %22 = getelementptr inbounds nuw %"class.rocksdb::MergeHelper", ptr %10, i32 0, i32 16
  %23 = load ptr, ptr %22, align 8, !tbaa !114
  %24 = call noundef zeroext i1 @_ZN7rocksdb24ShouldReportDetailedTimeEPNS_3EnvEPNS_10StatisticsE(ptr noundef %21, ptr noundef %23)
  br i1 %24, label %25, label %27

25:                                               ; preds = %19
  %26 = getelementptr inbounds nuw %"class.rocksdb::MergeHelper", ptr %10, i32 0, i32 14
  call void @_ZN7rocksdb13StopWatchNano5StartEv(ptr noundef nonnull align 8 dereferenceable(16) %26)
  br label %27

27:                                               ; preds = %25, %19, %15
  %28 = getelementptr inbounds nuw %"class.rocksdb::MergeHelper", ptr %10, i32 0, i32 18
  call void @_ZNSt7__cxx1112basic_stringIcSt11char_traitsIcESaIcEE5clearEv(ptr noundef nonnull align 8 dereferenceable(32) %28) #2
  %29 = getelementptr inbounds nuw %"class.rocksdb::MergeHelper", ptr %10, i32 0, i32 19
  call void @_ZN7rocksdb11InternalKey5ClearEv(ptr noundef nonnull align 8 dereferenceable(32) %29)
  call void @llvm.lifetime.start.p0(i64 4, ptr %8) #2
  %30 = getelementptr inbounds nuw %"class.rocksdb::MergeHelper", ptr %10, i32 0, i32 4
  %31 = load ptr, ptr %30, align 8, !tbaa !103
  %32 = getelementptr inbounds nuw %"class.rocksdb::MergeHelper", ptr %10, i32 0, i32 11
  %33 = load i32, ptr %32, align 8, !tbaa !112
  %34 = load ptr, ptr %6, align 8, !tbaa !19
  %35 = load ptr, ptr %7, align 8, !tbaa !19
  %36 = getelementptr inbounds nuw %"class.rocksdb::MergeHelper", ptr %10, i32 0, i32 18
  %37 = getelementptr inbounds nuw %"class.rocksdb::MergeHelper", ptr %10, i32 0, i32 19
  %38 = call noundef ptr @_ZN7rocksdb11InternalKey3repB5cxx11Ev(ptr noundef nonnull align 8 dereferenceable(32) %37)
  %39 = load ptr, ptr %31, align 8, !tbaa !116
  %40 = getelementptr inbounds ptr, ptr %39, i64 22
  %41 = load ptr, ptr %40, align 8
  %42 = call noundef i32 %41(ptr noundef nonnull align 8 dereferenceable(32) %31, i32 noundef %33, ptr noundef nonnull align 8 dereferenceable(16) %34, i32 noundef 1, ptr noundef %35, ptr noundef null, ptr noundef %36, ptr noundef null, ptr noundef %38)
  store i32 %42, ptr %8, align 4, !tbaa !183
  %43 = load i32, ptr %8, align 4, !tbaa !183
  %44 = icmp eq i32 %43, 3
  br i1 %44, label %45, label %62

45:                                               ; preds = %27
  %46 = getelementptr inbounds nuw %"class.rocksdb::MergeHelper", ptr %10, i32 0, i32 2
  %47 = load ptr, ptr %46, align 8, !tbaa !101
  %48 = getelementptr inbounds i8, ptr %47, i64 32
  call void @llvm.lifetime.start.p0(i64 16, ptr %9) #2
  %49 = getelementptr inbounds nuw %"class.rocksdb::MergeHelper", ptr %10, i32 0, i32 19
  %50 = call noundef ptr @_ZN7rocksdb11InternalKey3repB5cxx11Ev(ptr noundef nonnull align 8 dereferenceable(32) %49)
  call void @_ZN7rocksdb5SliceC2ERKNSt7__cxx1112basic_stringIcSt11char_traitsIcESaIcEEE(ptr noundef nonnull align 8 dereferenceable(16) %9, ptr noundef nonnull align 8 dereferenceable(32) %50)
  %51 = load ptr, ptr %6, align 8, !tbaa !19
  %52 = load ptr, ptr %48, align 8, !tbaa !116
  %53 = getelementptr inbounds ptr, ptr %52, i64 2
  %54 = load ptr, ptr %53, align 8
  %55 = call noundef i32 %54(ptr noundef nonnull align 8 dereferenceable(8) %48, ptr noundef nonnull align 8 dereferenceable(16) %9, ptr noundef nonnull align 8 dereferenceable(16) %51)
  %56 = icmp sle i32 %55, 0
  call void @llvm.lifetime.end.p0(i64 16, ptr %9) #2
  br i1 %56, label %57, label %58

57:                                               ; preds = %45
  store i32 0, ptr %8, align 4, !tbaa !183
  br label %61

58:                                               ; preds = %45
  %59 = getelementptr inbounds nuw %"class.rocksdb::MergeHelper", ptr %10, i32 0, i32 19
  %60 = load i8, ptr @_ZN7rocksdb17kValueTypeForSeekE, align 1, !tbaa !15
  call void @_ZN7rocksdb11InternalKey18ConvertFromUserKeyEmNS_9ValueTypeE(ptr noundef nonnull align 8 dereferenceable(32) %59, i64 noundef 72057594037927935, i8 noundef zeroext %60)
  br label %61

61:                                               ; preds = %58, %57
  br label %62

62:                                               ; preds = %61, %27
  %63 = getelementptr inbounds nuw %"class.rocksdb::MergeHelper", ptr %10, i32 0, i32 16
  %64 = load ptr, ptr %63, align 8, !tbaa !114
  %65 = icmp ne ptr %64, null
  br i1 %65, label %66, label %78

66:                                               ; preds = %62
  %67 = getelementptr inbounds nuw %"class.rocksdb::MergeHelper", ptr %10, i32 0, i32 0
  %68 = load ptr, ptr %67, align 8, !tbaa !73
  %69 = getelementptr inbounds nuw %"class.rocksdb::MergeHelper", ptr %10, i32 0, i32 16
  %70 = load ptr, ptr %69, align 8, !tbaa !114
  %71 = call noundef zeroext i1 @_ZN7rocksdb24ShouldReportDetailedTimeEPNS_3EnvEPNS_10StatisticsE(ptr noundef %68, ptr noundef %70)
  br i1 %71, label %72, label %78

72:                                               ; preds = %66
  %73 = getelementptr inbounds nuw %"class.rocksdb::MergeHelper", ptr %10, i32 0, i32 14
  %74 = call noundef i64 @_ZN7rocksdb13StopWatchNano16ElapsedNanosSafeEb(ptr noundef nonnull align 8 dereferenceable(16) %73, i1 noundef zeroext false)
  %75 = getelementptr inbounds nuw %"class.rocksdb::MergeHelper", ptr %10, i32 0, i32 15
  %76 = load i64, ptr %75, align 8, !tbaa !113
  %77 = add i64 %76, %74
  store i64 %77, ptr %75, align 8, !tbaa !113
  br label %78

78:                                               ; preds = %72, %66, %62
  %79 = load i32, ptr %8, align 4, !tbaa !183
  store i32 %79, ptr %4, align 4
  call void @llvm.lifetime.end.p0(i64 4, ptr %8) #2
  br label %80

80:                                               ; preds = %78, %14
  %81 = load i32, ptr %4, align 4
  ret i32 %81
}