; Function Attrs: mustprogress uwtable
define noundef i32 @_ZN7rocksdb11MergeHelper11FilterMergeERKNS_5SliceES3_(ptr noundef nonnull align 8 dereferenceable(304) %0, ptr noundef nonnull align 8 dereferenceable(16) %1, ptr noundef nonnull align 8 dereferenceable(16) %2) local_unnamed_addr #4 align 2 {
  %4 = alloca %"class.rocksdb::Slice", align 8
  %5 = getelementptr inbounds nuw i8, ptr %0, i64 32
  %6 = load ptr, ptr %5, align 8, !tbaa !64
  %7 = icmp eq ptr %6, null
  br i1 %7, label %71, label %8

8:                                                ; preds = %3
  %9 = getelementptr inbounds nuw i8, ptr %0, i64 224
  %10 = load ptr, ptr %9, align 8, !tbaa !74
  %.not = icmp eq ptr %10, null
  br i1 %.not, label %22, label %11

11:                                               ; preds = %8
  %12 = load ptr, ptr %0, align 8, !tbaa !18
  %13 = tail call noundef zeroext i1 @_ZN7rocksdb24ShouldReportDetailedTimeEPNS_3EnvEPNS_10StatisticsE(ptr noundef %12, ptr noundef nonnull %10)
  br i1 %13, label %14, label %22

14:                                               ; preds = %11
  %15 = getelementptr inbounds nuw i8, ptr %0, i64 200
  %16 = load ptr, ptr %15, align 8, !tbaa !73
  %17 = load ptr, ptr %16, align 8, !tbaa !77
  %18 = getelementptr inbounds nuw i8, ptr %17, i64 160
  %19 = load ptr, ptr %18, align 8
  %20 = tail call noundef i64 %19(ptr noundef nonnull align 8 dereferenceable(32) %16)
  %21 = getelementptr inbounds nuw i8, ptr %0, i64 208
  store i64 %20, ptr %21, align 8, !tbaa !469
  br label %22

22:                                               ; preds = %14, %11, %8
  %23 = getelementptr inbounds nuw i8, ptr %0, i64 240
  %24 = getelementptr inbounds nuw i8, ptr %0, i64 248
  store i64 0, ptr %24, align 8, !tbaa !16
  %25 = load ptr, ptr %23, align 8, !tbaa !11
  store i8 0, ptr %25, align 1, !tbaa !17
  %26 = getelementptr inbounds nuw i8, ptr %0, i64 272
  %27 = getelementptr inbounds nuw i8, ptr %0, i64 280
  store i64 0, ptr %27, align 8, !tbaa !16
  %28 = load ptr, ptr %26, align 8, !tbaa !11
  store i8 0, ptr %28, align 1, !tbaa !17
  %29 = load ptr, ptr %5, align 8, !tbaa !64
  %30 = getelementptr inbounds nuw i8, ptr %0, i64 80
  %31 = load i32, ptr %30, align 8, !tbaa !71
  %32 = load ptr, ptr %29, align 8, !tbaa !77
  %33 = getelementptr inbounds nuw i8, ptr %32, i64 176
  %34 = load ptr, ptr %33, align 8
  %35 = tail call noundef i32 %34(ptr noundef nonnull align 8 dereferenceable(32) %29, i32 noundef %31, ptr noundef nonnull align 8 dereferenceable(16) %1, i32 noundef 1, ptr noundef nonnull %2, ptr noundef null, ptr noundef nonnull %23, ptr noundef null, ptr noundef nonnull %26)
  %36 = icmp eq i32 %35, 3
  br i1 %36, label %37, label %51

37:                                               ; preds = %22
  %38 = getelementptr inbounds nuw i8, ptr %0, i64 16
  %39 = load ptr, ptr %38, align 8, !tbaa !62
  %40 = getelementptr inbounds nuw i8, ptr %39, i64 32
  call void @llvm.lifetime.start.p0(i64 16, ptr nonnull %4) #27
  %41 = load ptr, ptr %26, align 8, !tbaa !11
  store ptr %41, ptr %4, align 8, !tbaa !206
  %42 = getelementptr inbounds nuw i8, ptr %4, i64 8
  %43 = load i64, ptr %27, align 8, !tbaa !16
  store i64 %43, ptr %42, align 8, !tbaa !208
  %44 = load ptr, ptr %40, align 8, !tbaa !77
  %45 = getelementptr inbounds nuw i8, ptr %44, i64 16
  %46 = load ptr, ptr %45, align 8
  %47 = call noundef i32 %46(ptr noundef nonnull align 8 dereferenceable(8) %40, ptr noundef nonnull align 8 dereferenceable(16) %4, ptr noundef nonnull align 8 dereferenceable(16) %1)
  %48 = icmp slt i32 %47, 1
  call void @llvm.lifetime.end.p0(i64 16, ptr nonnull %4) #27
  br i1 %48, label %51, label %49

49:                                               ; preds = %37
  %50 = load i8, ptr @_ZN7rocksdb17kValueTypeForSeekE, align 1, !tbaa !184
  call void @_ZN7rocksdb23AppendInternalKeyFooterEPNSt7__cxx1112basic_stringIcSt11char_traitsIcESaIcEEEmNS_9ValueTypeE(ptr noundef nonnull align 8 dereferenceable(32) %26, i64 noundef 72057594037927935, i8 noundef zeroext %50)
  br label %51

51:                                               ; preds = %37, %49, %22
  %.0 = phi i32 [ 3, %49 ], [ %35, %22 ], [ 0, %37 ]
  %52 = load ptr, ptr %9, align 8, !tbaa !74
  %.not10 = icmp eq ptr %52, null
  br i1 %.not10, label %71, label %53

53:                                               ; preds = %51
  %54 = load ptr, ptr %0, align 8, !tbaa !18
  %55 = call noundef zeroext i1 @_ZN7rocksdb24ShouldReportDetailedTimeEPNS_3EnvEPNS_10StatisticsE(ptr noundef %54, ptr noundef nonnull %52)
  br i1 %55, label %56, label %71

56:                                               ; preds = %53
  %57 = getelementptr inbounds nuw i8, ptr %0, i64 200
  %58 = load ptr, ptr %57, align 8, !tbaa !73
  %.not.i = icmp eq ptr %58, null
  br i1 %.not.i, label %_ZN7rocksdb13StopWatchNano16ElapsedNanosSafeEb.exit, label %59

59:                                               ; preds = %56
  %60 = load ptr, ptr %58, align 8, !tbaa !77
  %61 = getelementptr inbounds nuw i8, ptr %60, i64 160
  %62 = load ptr, ptr %61, align 8
  %63 = call noundef i64 %62(ptr noundef nonnull align 8 dereferenceable(32) %58)
  %64 = getelementptr inbounds nuw i8, ptr %0, i64 208
  %65 = load i64, ptr %64, align 8, !tbaa !469
  %66 = sub i64 %63, %65
  br label %_ZN7rocksdb13StopWatchNano16ElapsedNanosSafeEb.exit

_ZN7rocksdb13StopWatchNano16ElapsedNanosSafeEb.exit: ; preds = %56, %59
  %67 = phi i64 [ %66, %59 ], [ 0, %56 ]
  %68 = getelementptr inbounds nuw i8, ptr %0, i64 216
  %69 = load i64, ptr %68, align 8, !tbaa !470
  %70 = add i64 %69, %67
  store i64 %70, ptr %68, align 8, !tbaa !470
  br label %71

71:                                               ; preds = %51, %53, %_ZN7rocksdb13StopWatchNano16ElapsedNanosSafeEb.exit, %3
  %.06 = phi i32 [ 0, %3 ], [ %.0, %_ZN7rocksdb13StopWatchNano16ElapsedNanosSafeEb.exit ], [ %.0, %53 ], [ %.0, %51 ]
  ret i32 %.06
}